(dp1
S'about'
p2
ccopy_reg
_reconstructor
p3
(ctwisted.plugin
CachedDropin
p4
c__builtin__
object
p5
NtRp6
(dp7
S'moduleName'
p8
S'hackabot.plugins.about'
p9
sS'description'
p10
S'The basic of basics: the echo command'
p11
sS'plugins'
p12
(lp13
g3
(ctwisted.plugin
CachedPlugin
p14
g5
NtRp15
(dp16
S'provided'
p17
(lp18
ctwisted.plugin
IPlugin
p19
achackabot.plugin
IHackabotPlugin
p20
asS'dropin'
p21
g6
sS'name'
p22
S'about'
p23
sg10
NsbasbsS'log'
p24
g3
(g4
g5
NtRp25
(dp26
S'moduleName'
p27
S'hackabot.plugins.log'
p28
sS'description'
p29
NsS'plugins'
p30
(lp31
g3
(g14
g5
NtRp32
(dp33
S'provided'
p34
(lp35
g19
ag20
asS'dropin'
p36
g25
sS'name'
p37
S'logger'
p38
sg29
S'Log events to the database.\n\n    This is a little ugly as the database has to use the same names\n    while events are free to use names that make sense.\n    '
p39
sbasbsS'admin'
p40
g3
(g4
g5
NtRp41
(dp42
g27
S'hackabot.plugins.admin'
p43
sg29
S'The admin command!'
p44
sg30
(lp45
g3
(g14
g5
NtRp46
(dp47
g34
(lp48
g19
ag20
asg36
g41
sg37
S'admin'
p49
sg29
NsbasbsS'echo'
p50
g3
(g4
g5
NtRp51
(dp52
g27
S'hackabot.plugins.echo'
p53
sg29
S'The basic of basics: the echo command'
p54
sg30
(lp55
g3
(g14
g5
NtRp56
(dp57
g34
(lp58
g19
ag20
asg36
g51
sg37
S'echo'
p59
sg29
NsbasbsS'score'
p60
g3
(g4
g5
NtRp61
(dp62
g27
S'hackabot.plugins.score'
p63
sg29
Nsg30
(lp64
g3
(g14
g5
NtRp65
(dp66
g34
(lp67
g19
ag20
asg36
g61
sg37
S'score'
p68
sg29
S'Record something++ and something-- statements'
p69
sbasbsS'external'
p70
g3
(g4
g5
NtRp71
(dp72
S'moduleName'
p73
S'hackabot.plugins.external'
p74
sS'description'
p75
NsS'plugins'
p76
(lp77
g3
(g14
g5
NtRp78
(dp79
S'provided'
p80
(lp81
g19
ag20
asS'dropin'
p82
g71
sS'name'
p83
S'external'
p84
sg75
S'Pass off events to external plugins,\n    run as independent processes.\n    '
p85
sbasbsS'msg'
p86
g3
(g4
g5
NtRp87
(dp88
g27
S'hackabot.plugins.msg'
p89
sg29
S'Send messages, notices, and actions'
p90
sg30
(lp91
g3
(g14
g5
NtRp92
(dp93
g34
(lp94
g19
ag20
asg36
g87
sg37
S'msg'
p95
sg29
NsbasbsS'help'
p96
g3
(g4
g5
NtRp97
(dp98
g27
S'hackabot.plugins.help'
p99
sg29
S'Get help!'
p100
sg30
(lp101
g3
(g14
g5
NtRp102
(dp103
g34
(lp104
g19
ag20
asg36
g97
sg37
S'help'
p105
sg29
Nsbasbs.